; Function Attrs: mustprogress null_pointer_is_valid sspstrong uwtable
define void @_ZN10TrafficTab11setDelegateEPFP21QAbstractItemDelegateP7QWidgetE(ptr noundef align 8 dereferenceable_or_null(130) %0, ptr noundef %1) local_unnamed_addr #3 align 2 {
  %.not = icmp eq ptr %1, null
  br i1 %.not, label %.loopexit, label %3

3:                                                ; preds = %2
  %4 = getelementptr inbounds nuw i8, ptr %0, i64 104
  store ptr %1, ptr %4, align 8
  %5 = tail call noundef i32 @_ZNK10QTabWidget5countEv(ptr noundef align 8 dereferenceable_or_null(40) %0)
  %6 = icmp sgt i32 %5, 0
  br i1 %6, label %.lr.ph, label %.loopexit

.lr.ph:                                           ; preds = %3, %13
  %.011 = phi i32 [ %14, %13 ], [ 0, %3 ]
  %7 = tail call noundef ptr @_ZNK10QTabWidget6widgetEi(ptr noundef align 8 dereferenceable_or_null(40) %0, i32 noundef %.011)
  %8 = tail call noundef ptr @_ZNK11QMetaObject4castEPK7QObject(ptr noundef nonnull align 8 dereferenceable_or_null(56) @_ZN9QTreeView16staticMetaObjectE, ptr noundef %7)
  %.not10 = icmp eq ptr %8, null
  br i1 %.not10, label %13, label %9

9:                                                ; preds = %.lr.ph
  %10 = tail call noundef ptr @_ZNK10QTabWidget6widgetEi(ptr noundef align 8 dereferenceable_or_null(40) %0, i32 noundef %.011)
  %11 = tail call noundef ptr @_ZNK11QMetaObject4castEPK7QObject(ptr noundef nonnull align 8 dereferenceable_or_null(56) @_ZN9QTreeView16staticMetaObjectE, ptr noundef %10)
  %12 = tail call noundef ptr %1(ptr noundef %11)
  tail call void @_ZN17QAbstractItemView15setItemDelegateEP21QAbstractItemDelegate(ptr noundef align 8 dereferenceable_or_null(40) %11, ptr noundef %12)
  br label %13

13:                                               ; preds = %.lr.ph, %9
  %14 = add nuw nsw i32 %.011, 1
  %15 = tail call noundef i32 @_ZNK10QTabWidget5countEv(ptr noundef align 8 dereferenceable_or_null(40) %0)
  %16 = icmp slt i32 %14, %15
  br i1 %16, label %.lr.ph, label %.loopexit, !llvm.loop !31

.loopexit:                                        ; preds = %13, %3, %2
  ret void
}